; Function Attrs: nounwind uwtable
define internal void @prepare_cb_wrapper(ptr noundef readonly captures(none) %0, ptr noundef %1, i64 noundef %2) #0 {
  %4 = alloca %struct.LogicalErrorCallbackState, align 8
  %5 = alloca %struct.ErrorContextCallback, align 8
  %6 = getelementptr inbounds nuw i8, ptr %0, i64 224
  %7 = load ptr, ptr %6, align 8
  call void @llvm.lifetime.start.p0(i64 24, ptr nonnull %4) #10
  call void @llvm.lifetime.start.p0(i64 24, ptr nonnull %5) #10
  store ptr %7, ptr %4, align 8
  %8 = getelementptr inbounds nuw i8, ptr %4, i64 8
  store ptr @.str.61, ptr %8, align 8
  %9 = getelementptr inbounds nuw i8, ptr %1, i64 32
  %10 = load i64, ptr %9, align 8
  %11 = getelementptr inbounds nuw i8, ptr %4, i64 16
  store i64 %10, ptr %11, align 8
  %12 = getelementptr inbounds nuw i8, ptr %5, i64 8
  store ptr @output_plugin_error_callback, ptr %12, align 8
  %13 = getelementptr inbounds nuw i8, ptr %5, i64 16
  store ptr %4, ptr %13, align 8
  %14 = load ptr, ptr @error_context_stack, align 8
  store ptr %14, ptr %5, align 8
  store ptr %5, ptr @error_context_stack, align 8
  %15 = getelementptr inbounds nuw i8, ptr %7, i64 283
  store i8 1, ptr %15, align 1
  %16 = getelementptr inbounds nuw i8, ptr %1, i64 4
  %17 = load i32, ptr %16, align 4
  %18 = getelementptr inbounds nuw i8, ptr %7, i64 296
  store i32 %17, ptr %18, align 8
  %19 = getelementptr inbounds nuw i8, ptr %1, i64 40
  %20 = load i64, ptr %19, align 8
  %21 = getelementptr inbounds nuw i8, ptr %7, i64 288
  store i64 %20, ptr %21, align 8
  %22 = getelementptr inbounds nuw i8, ptr %7, i64 300
  store i8 1, ptr %22, align 4
  %23 = getelementptr inbounds nuw i8, ptr %7, i64 128
  %24 = load ptr, ptr %23, align 8
  %25 = icmp eq ptr %24, null
  br i1 %25, label %26, label %30

26:                                               ; preds = %3
  %27 = call zeroext i1 @errstart_cold(i32 noundef 21, ptr noundef null) #11
  call void @llvm.assume(i1 %27)
  %28 = call i32 @errcode(i32 noundef 325) #10
  %29 = call i32 (ptr, ...) @errmsg(ptr noundef nonnull @.str.59, ptr noundef nonnull @.str.62) #10
  call void @errfinish(ptr noundef nonnull @.str.1, i32 noundef 982, ptr noundef nonnull @__func__.prepare_cb_wrapper) #10
  unreachable

30:                                               ; preds = %3
  call void %24(ptr noundef nonnull %7, ptr noundef nonnull %1, i64 noundef %2) #10
  %31 = load ptr, ptr %5, align 8
  store ptr %31, ptr @error_context_stack, align 8
  call void @llvm.lifetime.end.p0(i64 24, ptr nonnull %5) #10
  call void @llvm.lifetime.end.p0(i64 24, ptr nonnull %4) #10
  ret void
}